target datalayout = "e-m:e-p270:32:32-p271:32:32-p272:64:64-i64:64-i128:128-f80:128-n8:16:32:64-S128"
target triple = "x86_64-pc-linux-gnu"

%struct.ChunkInfo = type { i32, i32, i32 }
%struct.WebPData = type { ptr, i64 }
%struct.WebPChunk = type { i32, i32, %struct.WebPData, ptr }
%struct.WebPMuxAnimParams = type { i32, i32 }

@kChunks = external constant [11 x %struct.ChunkInfo], align 16

; Function Attrs: nounwind uwtable
define internal i32 @DeleteChunks(ptr noundef %0, i32 noundef %1) #0 {
  %3 = alloca ptr, align 8
  %4 = alloca i32, align 4
  %5 = alloca i32, align 4
  %6 = alloca ptr, align 8
  store ptr %0, ptr %3, align 8, !tbaa !52
  store i32 %1, ptr %4, align 4, !tbaa !3
  call void @llvm.lifetime.start.p0(i64 4, ptr %5) #7
  store i32 0, ptr %5, align 4, !tbaa !3
  br label %7

7:                                                ; preds = %26, %2
  %8 = load ptr, ptr %3, align 8, !tbaa !52
  %9 = load ptr, ptr %8, align 8, !tbaa !71
  %10 = icmp ne ptr %9, null
  br i1 %10, label %11, label %27

11:                                               ; preds = %7
  call void @llvm.lifetime.start.p0(i64 8, ptr %6) #7
  %12 = load ptr, ptr %3, align 8, !tbaa !52
  %13 = load ptr, ptr %12, align 8, !tbaa !71
  store ptr %13, ptr %6, align 8, !tbaa !71
  %14 = load ptr, ptr %6, align 8, !tbaa !71
  %15 = getelementptr inbounds nuw %struct.WebPChunk, ptr %14, i32 0, i32 0
  %16 = load i32, ptr %15, align 8, !tbaa !39
  %17 = load i32, ptr %4, align 4, !tbaa !3
  %18 = icmp eq i32 %16, %17
  br i1 %18, label %19, label %23

19:                                               ; preds = %11
  %20 = load ptr, ptr %6, align 8, !tbaa !71
  %21 = call ptr @ChunkDelete(ptr noundef %20)
  %22 = load ptr, ptr %3, align 8, !tbaa !52
  store ptr %21, ptr %22, align 8, !tbaa !71
  store i32 1, ptr %5, align 4, !tbaa !3
  br label %26

23:                                               ; preds = %11
  %24 = load ptr, ptr %6, align 8, !tbaa !71
  %25 = getelementptr inbounds nuw %struct.WebPChunk, ptr %24, i32 0, i32 3
  store ptr %25, ptr %3, align 8, !tbaa !52
  br label %26

26:                                               ; preds = %23, %19
  call void @llvm.lifetime.end.p0(i64 8, ptr %6) #7
  br label %7, !llvm.loop !72

27:                                               ; preds = %7
  %28 = load i32, ptr %5, align 4, !tbaa !3
  call void @llvm.lifetime.end.p0(i64 4, ptr %5) #7
  ret i32 %28
}

; Function Attrs: inlinehint nounwind uwtable
define internal i32 @IsWPI(i32 noundef %0) #4 {
  %2 = alloca i32, align 4
  %3 = alloca i32, align 4
  store i32 %0, ptr %3, align 4, !tbaa !3
  %4 = load i32, ptr %3, align 4, !tbaa !3
  switch i32 %4, label %6 [
    i32 3, label %5
    i32 5, label %5
    i32 6, label %5
  ]

5:                                                ; preds = %1, %1, %1
  store i32 1, ptr %2, align 4
  br label %7

6:                                                ; preds = %1
  store i32 0, ptr %2, align 4
  br label %7

7:                                                ; preds = %6, %5
  %8 = load i32, ptr %2, align 4
  ret i32 %8
}

; Function Attrs: inlinehint nounwind uwtable
define internal void @PutLE16(ptr noundef %0, i32 noundef %1) #4 {
  %3 = alloca ptr, align 8
  %4 = alloca i32, align 4
  store ptr %0, ptr %3, align 8, !tbaa !15
  store i32 %1, ptr %4, align 4, !tbaa !3
  %5 = load i32, ptr %4, align 4, !tbaa !3
  %6 = ashr i32 %5, 0
  %7 = and i32 %6, 255
  %8 = trunc i32 %7 to i8
  %9 = load ptr, ptr %3, align 8, !tbaa !15
  %10 = getelementptr inbounds i8, ptr %9, i64 0
  store i8 %8, ptr %10, align 1, !tbaa !43
  %11 = load i32, ptr %4, align 4, !tbaa !3
  %12 = ashr i32 %11, 8
  %13 = and i32 %12, 255
  %14 = trunc i32 %13 to i8
  %15 = load ptr, ptr %3, align 8, !tbaa !15
  %16 = getelementptr inbounds i8, ptr %15, i64 1
  store i8 %14, ptr %16, align 1, !tbaa !43
  ret void
}

; Function Attrs: inlinehint nounwind uwtable
define internal void @PutLE32(ptr noundef %0, i32 noundef %1) #4 {
  %3 = alloca ptr, align 8
  %4 = alloca i32, align 4
  store ptr %0, ptr %3, align 8, !tbaa !15
  store i32 %1, ptr %4, align 4, !tbaa !3
  %5 = load ptr, ptr %3, align 8, !tbaa !15
  %6 = load i32, ptr %4, align 4, !tbaa !3
  %7 = and i32 %6, 65535
  call void @PutLE16(ptr noundef %5, i32 noundef %7)
  %8 = load ptr, ptr %3, align 8, !tbaa !15
  %9 = getelementptr inbounds i8, ptr %8, i64 2
  %10 = load i32, ptr %4, align 4, !tbaa !3
  %11 = lshr i32 %10, 16
  call void @PutLE16(ptr noundef %9, i32 noundef %11)
  ret void
}

; Function Attrs: nounwind uwtable
define internal i32 @MuxDeleteAllNamedData(ptr noundef %0, i32 noundef %1) #0 {
  %3 = alloca i32, align 4
  %4 = alloca ptr, align 8
  %5 = alloca i32, align 4
  %6 = alloca i32, align 4
  %7 = alloca i32, align 4
  store ptr %0, ptr %4, align 8, !tbaa !7
  store i32 %1, ptr %5, align 4, !tbaa !3
  call void @llvm.lifetime.start.p0(i64 4, ptr %6) #7
  %8 = load i32, ptr %5, align 4, !tbaa !3
  %9 = call i32 @ChunkGetIdFromTag(i32 noundef %8)
  store i32 %9, ptr %6, align 4, !tbaa !3
  %10 = load i32, ptr %6, align 4, !tbaa !3
  %11 = call i32 @IsWPI(i32 noundef %10)
  %12 = icmp ne i32 %11, 0
  br i1 %12, label %13, label %14

13:                                               ; preds = %2
  store i32 -1, ptr %3, align 4
  store i32 1, ptr %7, align 4
  br label %20

14:                                               ; preds = %2
  %15 = load ptr, ptr %4, align 8, !tbaa !7
  %16 = load i32, ptr %6, align 4, !tbaa !3
  %17 = call ptr @MuxGetChunkListFromId(ptr noundef %15, i32 noundef %16)
  %18 = load i32, ptr %5, align 4, !tbaa !3
  %19 = call i32 @DeleteChunks(ptr noundef %17, i32 noundef %18)
  store i32 %19, ptr %3, align 4
  store i32 1, ptr %7, align 4
  br label %20

20:                                               ; preds = %14, %13
  call void @llvm.lifetime.end.p0(i64 4, ptr %6) #7
  %21 = load i32, ptr %3, align 4
  ret i32 %21
}

; Function Attrs: nounwind uwtable
define i32 @WebPMuxSetAnimationParams(ptr noundef %0, ptr noundef %1) #0 {
  %3 = alloca i32, align 4
  %4 = alloca ptr, align 8
  %5 = alloca ptr, align 8
  %6 = alloca i32, align 4
  %7 = alloca [6 x i8], align 1
  %8 = alloca %struct.WebPData, align 8
  %9 = alloca i32, align 4
  store ptr %0, ptr %4, align 8, !tbaa !7
  store ptr %1, ptr %5, align 8, !tbaa !54
  call void @llvm.lifetime.start.p0(i64 4, ptr %6) #7
  call void @llvm.lifetime.start.p0(i64 6, ptr %7) #7
  call void @llvm.lifetime.start.p0(i64 16, ptr %8) #7
  %10 = getelementptr inbounds nuw %struct.WebPData, ptr %8, i32 0, i32 0
  %11 = getelementptr inbounds [6 x i8], ptr %7, i64 0, i64 0
  store ptr %11, ptr %10, align 8, !tbaa !19
  %12 = getelementptr inbounds nuw %struct.WebPData, ptr %8, i32 0, i32 1
  store i64 6, ptr %12, align 8, !tbaa !22
  %13 = load ptr, ptr %4, align 8, !tbaa !7
  %14 = icmp eq ptr %13, null
  br i1 %14, label %18, label %15

15:                                               ; preds = %2
  %16 = load ptr, ptr %5, align 8, !tbaa !54
  %17 = icmp eq ptr %16, null
  br i1 %17, label %18, label %19

18:                                               ; preds = %15, %2
  store i32 -1, ptr %3, align 4
  store i32 1, ptr %9, align 4
  br label %54

19:                                               ; preds = %15
  %20 = load ptr, ptr %5, align 8, !tbaa !54
  %21 = getelementptr inbounds nuw %struct.WebPMuxAnimParams, ptr %20, i32 0, i32 1
  %22 = load i32, ptr %21, align 4, !tbaa !56
  %23 = icmp slt i32 %22, 0
  br i1 %23, label %29, label %24

24:                                               ; preds = %19
  %25 = load ptr, ptr %5, align 8, !tbaa !54
  %26 = getelementptr inbounds nuw %struct.WebPMuxAnimParams, ptr %25, i32 0, i32 1
  %27 = load i32, ptr %26, align 4, !tbaa !56
  %28 = icmp sge i32 %27, 65536
  br i1 %28, label %29, label %30

29:                                               ; preds = %24, %19
  store i32 -1, ptr %3, align 4
  store i32 1, ptr %9, align 4
  br label %54

30:                                               ; preds = %24
  %31 = load ptr, ptr %4, align 8, !tbaa !7
  %32 = load i32, ptr getelementptr inbounds ([11 x %struct.ChunkInfo], ptr @kChunks, i64 0, i64 2), align 8, !tbaa !29
  %33 = call i32 @MuxDeleteAllNamedData(ptr noundef %31, i32 noundef %32)
  store i32 %33, ptr %6, align 4, !tbaa !3
  %34 = load i32, ptr %6, align 4, !tbaa !3
  %35 = icmp ne i32 %34, 1
  br i1 %35, label %36, label %41

36:                                               ; preds = %30
  %37 = load i32, ptr %6, align 4, !tbaa !3
  %38 = icmp ne i32 %37, 0
  br i1 %38, label %39, label %41

39:                                               ; preds = %36
  %40 = load i32, ptr %6, align 4, !tbaa !3
  store i32 %40, ptr %3, align 4
  store i32 1, ptr %9, align 4
  br label %54

41:                                               ; preds = %36, %30
  %42 = getelementptr inbounds [6 x i8], ptr %7, i64 0, i64 0
  %43 = load ptr, ptr %5, align 8, !tbaa !54
  %44 = getelementptr inbounds nuw %struct.WebPMuxAnimParams, ptr %43, i32 0, i32 0
  %45 = load i32, ptr %44, align 4, !tbaa !58
  call void @PutLE32(ptr noundef %42, i32 noundef %45)
  %46 = getelementptr inbounds [6 x i8], ptr %7, i64 0, i64 0
  %47 = getelementptr inbounds i8, ptr %46, i64 4
  %48 = load ptr, ptr %5, align 8, !tbaa !54
  %49 = getelementptr inbounds nuw %struct.WebPMuxAnimParams, ptr %48, i32 0, i32 1
  %50 = load i32, ptr %49, align 4, !tbaa !56
  call void @PutLE16(ptr noundef %47, i32 noundef %50)
  %51 = load ptr, ptr %4, align 8, !tbaa !7
  %52 = load i32, ptr getelementptr inbounds ([11 x %struct.ChunkInfo], ptr @kChunks, i64 0, i64 2), align 8, !tbaa !29
  %53 = call i32 @MuxSet(ptr noundef %51, i32 noundef %52, ptr noundef %8, i32 noundef 1)
  store i32 %53, ptr %3, align 4
  store i32 1, ptr %9, align 4
  br label %54

54:                                               ; preds = %41, %39, %29, %18
  call void @llvm.lifetime.end.p0(i64 16, ptr %8) #7
  call void @llvm.lifetime.end.p0(i64 6, ptr %7) #7
  call void @llvm.lifetime.end.p0(i64 4, ptr %6) #7
  %55 = load i32, ptr %3, align 4
  ret i32 %55
}