; Function Attrs: nounwind uwtable
define i32 @WebPMuxSetAnimationParams(ptr noundef %0, ptr noundef readonly captures(address_is_null) %1) local_unnamed_addr #0 {
  %3 = alloca [6 x i8], align 1
  %4 = alloca %struct.WebPData, align 8
  call void @llvm.lifetime.start.p0(i64 6, ptr nonnull %3) #7
  call void @llvm.lifetime.start.p0(i64 16, ptr nonnull %4) #7
  store ptr %3, ptr %4, align 8, !tbaa !10
  %5 = getelementptr inbounds nuw i8, ptr %4, i64 8
  store i64 6, ptr %5, align 8, !tbaa !14
  %6 = icmp eq ptr %0, null
  %7 = icmp eq ptr %1, null
  %or.cond = or i1 %6, %7
  br i1 %or.cond, label %MuxDeleteAllNamedData.exit.thread, label %8

8:                                                ; preds = %2
  %9 = getelementptr inbounds nuw i8, ptr %1, i64 4
  %10 = load i32, ptr %9, align 4, !tbaa !47
  %or.cond18 = icmp ugt i32 %10, 65535
  br i1 %or.cond18, label %MuxDeleteAllNamedData.exit.thread, label %11

11:                                               ; preds = %8
  %12 = load i32, ptr getelementptr inbounds nuw (i8, ptr @kChunks, i64 24), align 8, !tbaa !29
  %13 = call i32 @ChunkGetIdFromTag(i32 noundef %12) #7
  switch i32 %13, label %14 [
    i32 3, label %MuxDeleteAllNamedData.exit.thread
    i32 5, label %MuxDeleteAllNamedData.exit.thread
    i32 6, label %MuxDeleteAllNamedData.exit.thread
  ]

14:                                               ; preds = %11
  %15 = call ptr @MuxGetChunkListFromId(ptr noundef nonnull %0, i32 noundef %13) #7
  %16 = load ptr, ptr %15, align 8, !tbaa !15
  %.not10.i.i = icmp eq ptr %16, null
  br i1 %.not10.i.i, label %MuxDeleteAllNamedData.exit.thread21, label %.lr.ph.i.i

.lr.ph.i.i:                                       ; preds = %14, %24
  %17 = phi ptr [ %25, %24 ], [ %16, %14 ]
  %.012.i.i = phi ptr [ %.1.i.i, %24 ], [ %15, %14 ]
  %18 = load i32, ptr %17, align 8, !tbaa !17
  %19 = icmp eq i32 %18, %12
  br i1 %19, label %20, label %22

20:                                               ; preds = %.lr.ph.i.i
  %21 = call ptr @ChunkDelete(ptr noundef nonnull %17) #7
  store ptr %21, ptr %.012.i.i, align 8, !tbaa !15
  br label %24

22:                                               ; preds = %.lr.ph.i.i
  %23 = getelementptr inbounds nuw i8, ptr %17, i64 24
  %.pre.i.i = load ptr, ptr %23, align 8, !tbaa !15
  br label %24

24:                                               ; preds = %22, %20
  %25 = phi ptr [ %21, %20 ], [ %.pre.i.i, %22 ]
  %.1.i.i = phi ptr [ %.012.i.i, %20 ], [ %23, %22 ]
  %.not.i.i = icmp eq ptr %25, null
  br i1 %.not.i.i, label %MuxDeleteAllNamedData.exit.thread21, label %.lr.ph.i.i, !llvm.loop !20

MuxDeleteAllNamedData.exit.thread21:              ; preds = %24, %14
  %26 = load i32, ptr %1, align 4, !tbaa !49
  %27 = trunc i32 %26 to i8
  store i8 %27, ptr %3, align 1, !tbaa !38
  %28 = lshr i32 %26, 8
  %29 = trunc i32 %28 to i8
  %30 = getelementptr inbounds nuw i8, ptr %3, i64 1
  store i8 %29, ptr %30, align 1, !tbaa !38
  %31 = getelementptr inbounds nuw i8, ptr %3, i64 2
  %32 = lshr i32 %26, 16
  %33 = trunc i32 %32 to i8
  store i8 %33, ptr %31, align 1, !tbaa !38
  %34 = lshr i32 %26, 24
  %35 = trunc nuw i32 %34 to i8
  %36 = getelementptr inbounds nuw i8, ptr %3, i64 3
  store i8 %35, ptr %36, align 1, !tbaa !38
  %37 = getelementptr inbounds nuw i8, ptr %3, i64 4
  %38 = load i32, ptr %9, align 4, !tbaa !47
  %39 = trunc i32 %38 to i8
  store i8 %39, ptr %37, align 1, !tbaa !38
  %40 = lshr i32 %38, 8
  %41 = trunc i32 %40 to i8
  %42 = getelementptr inbounds nuw i8, ptr %3, i64 5
  store i8 %41, ptr %42, align 1, !tbaa !38
  %43 = call fastcc i32 @MuxSet(ptr noundef %0, i32 noundef %12, ptr noundef %4, i32 noundef 1)
  br label %MuxDeleteAllNamedData.exit.thread

MuxDeleteAllNamedData.exit.thread:                ; preds = %11, %11, %11, %8, %2, %MuxDeleteAllNamedData.exit.thread21
  %.0 = phi i32 [ %43, %MuxDeleteAllNamedData.exit.thread21 ], [ -1, %2 ], [ -1, %8 ], [ -1, %11 ], [ -1, %11 ], [ -1, %11 ]
  call void @llvm.lifetime.end.p0(i64 16, ptr nonnull %4) #7
  call void @llvm.lifetime.end.p0(i64 6, ptr nonnull %3) #7
  ret i32 %.0
}